; Function Attrs: mustprogress uwtable
define dso_local void @_Z14lua_pushstringP9lua_StatePKc(ptr noundef %0, ptr noundef %1) local_unnamed_addr #3 {
  %3 = icmp eq ptr %1, null
  br i1 %3, label %4, label %9

4:                                                ; preds = %2
  %5 = getelementptr inbounds nuw i8, ptr %0, i64 8
  %6 = load ptr, ptr %5, align 8, !tbaa !19
  %7 = getelementptr inbounds nuw i8, ptr %6, i64 12
  store i32 0, ptr %7, align 4, !tbaa !47
  %8 = getelementptr inbounds nuw i8, ptr %6, i64 16
  store ptr %8, ptr %5, align 8, !tbaa !19
  br label %31

9:                                                ; preds = %2
  %10 = tail call i64 @strlen(ptr noundef nonnull dereferenceable(1) %1) #20
  %11 = getelementptr inbounds nuw i8, ptr %0, i64 24
  %12 = load ptr, ptr %11, align 8, !tbaa !30
  %13 = getelementptr inbounds nuw i8, ptr %12, i64 72
  %14 = load i64, ptr %13, align 8, !tbaa !31
  %15 = getelementptr inbounds nuw i8, ptr %12, i64 64
  %16 = load i64, ptr %15, align 8, !tbaa !46
  %.not.i = icmp ult i64 %14, %16
  br i1 %.not.i, label %19, label %17

17:                                               ; preds = %9
  %18 = tail call noundef i64 @_Z9luaC_stepP9lua_Stateb(ptr noundef nonnull %0, i1 noundef zeroext true)
  br label %19

19:                                               ; preds = %17, %9
  %20 = getelementptr inbounds nuw i8, ptr %0, i64 1
  %21 = load i8, ptr %20, align 1, !tbaa !21
  %22 = and i8 %21, 4
  %.not13.i = icmp eq i8 %22, 0
  br i1 %.not13.i, label %_Z15lua_pushlstringP9lua_StatePKcm.exit, label %23

23:                                               ; preds = %19
  %24 = getelementptr inbounds nuw i8, ptr %0, i64 104
  tail call void @_Z16luaC_barrierbackP9lua_StateP8GCObjectPS2_(ptr noundef nonnull %0, ptr noundef nonnull %0, ptr noundef nonnull %24)
  br label %_Z15lua_pushlstringP9lua_StatePKcm.exit

_Z15lua_pushlstringP9lua_StatePKcm.exit:          ; preds = %19, %23
  %25 = getelementptr inbounds nuw i8, ptr %0, i64 8
  %26 = load ptr, ptr %25, align 8, !tbaa !19
  %27 = tail call noundef ptr @_Z12luaS_newlstrP9lua_StatePKcm(ptr noundef nonnull %0, ptr noundef nonnull %1, i64 noundef %10)
  store ptr %27, ptr %26, align 8, !tbaa !21
  %28 = getelementptr inbounds nuw i8, ptr %26, i64 12
  store i32 5, ptr %28, align 4, !tbaa !47
  %29 = load ptr, ptr %25, align 8, !tbaa !19
  %30 = getelementptr inbounds nuw i8, ptr %29, i64 16
  store ptr %30, ptr %25, align 8, !tbaa !19
  br label %31

31:                                               ; preds = %_Z15lua_pushlstringP9lua_StatePKcm.exit, %4
  ret void
}